target datalayout = "e-m:e-p270:32:32-p271:32:32-p272:64:64-i64:64-i128:128-f80:128-n8:16:32:64-S128"
target triple = "x86_64-pc-linux-gnu"

%struct._typeobject = type { %struct.PyVarObject, ptr, i64, i64, ptr, i64, ptr, ptr, ptr, ptr, ptr, ptr, ptr, ptr, ptr, ptr, ptr, ptr, ptr, i64, ptr, ptr, ptr, ptr, i64, ptr, ptr, ptr, ptr, ptr, ptr, ptr, ptr, ptr, i64, ptr, ptr, ptr, ptr, ptr, ptr, ptr, ptr, ptr, ptr, ptr, i32, ptr, ptr, i8, i16 }
%struct.PyVarObject = type { %struct._object, i64 }
%struct._object = type { %union.anon, ptr }
%union.anon = type { i64 }

@PyType_Type = external global %struct._typeobject, align 8
@.str.4 = private unnamed_addr constant [9 x i8] c"argument\00", align 1
@.str.12 = private unnamed_addr constant [20 x i8] c"has_vectorcall_flag\00", align 1

; Function Attrs: inlinehint nounwind uwtable
define internal i32 @PyType_HasFeature(ptr noundef %0, i64 noundef %1) #3 {
  %3 = alloca ptr, align 8
  %4 = alloca i64, align 8
  %5 = alloca i64, align 8
  store ptr %0, ptr %3, align 8, !tbaa !23
  store i64 %1, ptr %4, align 8, !tbaa !10
  call void @llvm.lifetime.start.p0(i64 8, ptr %5) #7
  %6 = load ptr, ptr %3, align 8, !tbaa !23
  %7 = getelementptr inbounds nuw %struct._typeobject, ptr %6, i32 0, i32 19
  %8 = load i64, ptr %7, align 8, !tbaa !33
  store i64 %8, ptr %5, align 8, !tbaa !10
  %9 = load i64, ptr %5, align 8, !tbaa !10
  %10 = load i64, ptr %4, align 8, !tbaa !10
  %11 = and i64 %9, %10
  %12 = icmp ne i64 %11, 0
  %13 = zext i1 %12 to i32
  call void @llvm.lifetime.end.p0(i64 8, ptr %5) #7
  ret i32 %13
}

; Function Attrs: inlinehint nounwind uwtable
define internal ptr @_Py_TYPE(ptr noundef %0) #3 {
  %2 = alloca ptr, align 8
  store ptr %0, ptr %2, align 8, !tbaa !3
  %3 = load ptr, ptr %2, align 8, !tbaa !3
  %4 = getelementptr inbounds nuw %struct._object, ptr %3, i32 0, i32 1
  %5 = load ptr, ptr %4, align 8, !tbaa !27
  ret ptr %5
}

; Function Attrs: inlinehint nounwind uwtable
define internal i32 @Py_IS_TYPE(ptr noundef %0, ptr noundef %1) #3 {
  %3 = alloca ptr, align 8
  %4 = alloca ptr, align 8
  store ptr %0, ptr %3, align 8, !tbaa !3
  store ptr %1, ptr %4, align 8, !tbaa !23
  %5 = load ptr, ptr %3, align 8, !tbaa !3
  %6 = call ptr @_Py_TYPE(ptr noundef %5)
  %7 = load ptr, ptr %4, align 8, !tbaa !23
  %8 = icmp eq ptr %6, %7
  %9 = zext i1 %8 to i32
  ret i32 %9
}

; Function Attrs: nounwind uwtable
define internal i32 @_testcapi_has_vectorcall_flag_impl(ptr noundef %0, ptr noundef %1) #0 {
  %3 = alloca ptr, align 8
  %4 = alloca ptr, align 8
  store ptr %0, ptr %3, align 8, !tbaa !3
  store ptr %1, ptr %4, align 8, !tbaa !23
  %5 = load ptr, ptr %4, align 8, !tbaa !23
  %6 = call i32 @PyType_HasFeature(ptr noundef %5, i64 noundef 2048)
  ret i32 %6
}

; Function Attrs: inlinehint nounwind uwtable
define internal i32 @PyObject_TypeCheck(ptr noundef %0, ptr noundef %1) #3 {
  %3 = alloca ptr, align 8
  %4 = alloca ptr, align 8
  store ptr %0, ptr %3, align 8, !tbaa !3
  store ptr %1, ptr %4, align 8, !tbaa !23
  %5 = load ptr, ptr %3, align 8, !tbaa !3
  %6 = load ptr, ptr %4, align 8, !tbaa !23
  %7 = call i32 @Py_IS_TYPE(ptr noundef %5, ptr noundef %6)
  %8 = icmp ne i32 %7, 0
  br i1 %8, label %15, label %9

9:                                                ; preds = %2
  %10 = load ptr, ptr %3, align 8, !tbaa !3
  %11 = call ptr @_Py_TYPE(ptr noundef %10)
  %12 = load ptr, ptr %4, align 8, !tbaa !23
  %13 = call i32 @PyType_IsSubtype(ptr noundef %11, ptr noundef %12)
  %14 = icmp ne i32 %13, 0
  br label %15

15:                                               ; preds = %9, %2
  %16 = phi i1 [ true, %2 ], [ %14, %9 ]
  %17 = zext i1 %16 to i32
  ret i32 %17
}

; Function Attrs: nounwind uwtable
define internal ptr @_testcapi_has_vectorcall_flag(ptr noundef %0, ptr noundef %1) #0 {
  %3 = alloca ptr, align 8
  %4 = alloca ptr, align 8
  %5 = alloca ptr, align 8
  %6 = alloca ptr, align 8
  %7 = alloca i32, align 4
  store ptr %0, ptr %3, align 8, !tbaa !3
  store ptr %1, ptr %4, align 8, !tbaa !3
  call void @llvm.lifetime.start.p0(i64 8, ptr %5) #7
  store ptr null, ptr %5, align 8, !tbaa !3
  call void @llvm.lifetime.start.p0(i64 8, ptr %6) #7
  call void @llvm.lifetime.start.p0(i64 4, ptr %7) #7
  %8 = load ptr, ptr %4, align 8, !tbaa !3
  %9 = call i32 @PyObject_TypeCheck(ptr noundef %8, ptr noundef @PyType_Type)
  %10 = icmp ne i32 %9, 0
  br i1 %10, label %14, label %11

11:                                               ; preds = %2
  %12 = load ptr, ptr getelementptr inbounds nuw (%struct._typeobject, ptr @PyType_Type, i32 0, i32 1), align 8, !tbaa !12
  %13 = load ptr, ptr %4, align 8, !tbaa !3
  call void @_PyArg_BadArgument(ptr noundef @.str.12, ptr noundef @.str.4, ptr noundef %12, ptr noundef %13)
  br label %29

14:                                               ; preds = %2
  %15 = load ptr, ptr %4, align 8, !tbaa !3
  store ptr %15, ptr %6, align 8, !tbaa !23
  %16 = load ptr, ptr %3, align 8, !tbaa !3
  %17 = load ptr, ptr %6, align 8, !tbaa !23
  %18 = call i32 @_testcapi_has_vectorcall_flag_impl(ptr noundef %16, ptr noundef %17)
  store i32 %18, ptr %7, align 4, !tbaa !28
  %19 = load i32, ptr %7, align 4, !tbaa !28
  %20 = icmp eq i32 %19, -1
  br i1 %20, label %21, label %25

21:                                               ; preds = %14
  %22 = call ptr @PyErr_Occurred()
  %23 = icmp ne ptr %22, null
  br i1 %23, label %24, label %25

24:                                               ; preds = %21
  br label %29

25:                                               ; preds = %21, %14
  %26 = load i32, ptr %7, align 4, !tbaa !28
  %27 = sext i32 %26 to i64
  %28 = call ptr @PyBool_FromLong(i64 noundef %27)
  store ptr %28, ptr %5, align 8, !tbaa !3
  br label %29

29:                                               ; preds = %25, %24, %11
  %30 = load ptr, ptr %5, align 8, !tbaa !3
  call void @llvm.lifetime.end.p0(i64 4, ptr %7) #7
  call void @llvm.lifetime.end.p0(i64 8, ptr %6) #7
  call void @llvm.lifetime.end.p0(i64 8, ptr %5) #7
  ret ptr %30
}