; Function Attrs: nounwind uwtable
define internal ptr @_testcapi_has_vectorcall_flag(ptr readnone captures(none) %0, ptr noundef %1) #0 {
  %3 = getelementptr i8, ptr %1, i64 8
  %.val = load ptr, ptr %3, align 8, !tbaa !3
  %.not.i = icmp eq ptr %.val, @PyType_Type
  br i1 %.not.i, label %PyObject_TypeCheck.exit.thread, label %PyObject_TypeCheck.exit

PyObject_TypeCheck.exit:                          ; preds = %2
  %4 = tail call i32 @PyType_IsSubtype(ptr noundef %.val, ptr noundef nonnull @PyType_Type) #5
  %.not9 = icmp eq i32 %4, 0
  br i1 %.not9, label %5, label %PyObject_TypeCheck.exit.thread

5:                                                ; preds = %PyObject_TypeCheck.exit
  %6 = load ptr, ptr getelementptr inbounds nuw (i8, ptr @PyType_Type, i64 24), align 8, !tbaa !9
  tail call void @_PyArg_BadArgument(ptr noundef nonnull @.str.12, ptr noundef nonnull @.str.4, ptr noundef %6, ptr noundef nonnull %1) #5
  br label %11

PyObject_TypeCheck.exit.thread:                   ; preds = %2, %PyObject_TypeCheck.exit
  %7 = getelementptr i8, ptr %1, i64 168
  %.val7 = load i64, ptr %7, align 8, !tbaa !24
  %8 = lshr i64 %.val7, 11
  %9 = and i64 %8, 1
  %10 = tail call ptr @PyBool_FromLong(i64 noundef %9) #5
  br label %11

11:                                               ; preds = %PyObject_TypeCheck.exit.thread, %5
  %.0 = phi ptr [ %10, %PyObject_TypeCheck.exit.thread ], [ null, %5 ]
  ret ptr %.0
}